target datalayout = "e-m:e-p270:32:32-p271:32:32-p272:64:64-i64:64-i128:128-f80:128-n8:16:32:64-S128"
target triple = "x86_64-unknown-linux-gnu"

%struct.redisCommand = type { ptr, ptr, ptr, ptr, i32, ptr, ptr, i32, ptr, i32, ptr, i32, ptr, i32, i64, i64, ptr, i32, ptr, i32, ptr, ptr, i64, i64, i64, i64, i32, ptr, ptr, %struct.keySpec, ptr, ptr, ptr }
%struct.keySpec = type { ptr, i64, i32, %union.anon, i32, %union.anon.2 }
%union.anon = type { %struct.anon.1 }
%struct.anon.1 = type { ptr, i32 }
%union.anon.2 = type { %struct.anon.3 }
%struct.anon.3 = type { i32, i32, i32 }

; Function Attrs: nounwind uwtable
define dso_local void @setImplicitACLCategories(ptr noundef %c) #0 {
entry:
  %c.addr = alloca ptr, align 8
  store ptr %c, ptr %c.addr, align 8
  %0 = load ptr, ptr %c.addr, align 8
  %flags = getelementptr inbounds %struct.redisCommand, ptr %0, i32 0, i32 14
  %1 = load i64, ptr %flags, align 8
  %and = and i64 %1, 1
  %tobool = icmp ne i64 %and, 0
  br i1 %tobool, label %if.then, label %if.end

if.then:                                          ; preds = %entry
  %2 = load ptr, ptr %c.addr, align 8
  %acl_categories = getelementptr inbounds %struct.redisCommand, ptr %2, i32 0, i32 15
  %3 = load i64, ptr %acl_categories, align 8
  %or = or i64 %3, 4
  store i64 %or, ptr %acl_categories, align 8
  br label %if.end

if.end:                                           ; preds = %if.then, %entry
  %4 = load ptr, ptr %c.addr, align 8
  %flags1 = getelementptr inbounds %struct.redisCommand, ptr %4, i32 0, i32 14
  %5 = load i64, ptr %flags1, align 8
  %and2 = and i64 %5, 2
  %tobool3 = icmp ne i64 %and2, 0
  br i1 %tobool3, label %land.lhs.true, label %if.end10

land.lhs.true:                                    ; preds = %if.end
  %6 = load ptr, ptr %c.addr, align 8
  %acl_categories4 = getelementptr inbounds %struct.redisCommand, ptr %6, i32 0, i32 15
  %7 = load i64, ptr %acl_categories4, align 8
  %and5 = and i64 %7, 1048576
  %tobool6 = icmp ne i64 %and5, 0
  br i1 %tobool6, label %if.end10, label %if.then7

if.then7:                                         ; preds = %land.lhs.true
  %8 = load ptr, ptr %c.addr, align 8
  %acl_categories8 = getelementptr inbounds %struct.redisCommand, ptr %8, i32 0, i32 15
  %9 = load i64, ptr %acl_categories8, align 8
  %or9 = or i64 %9, 2
  store i64 %or9, ptr %acl_categories8, align 8
  br label %if.end10

if.end10:                                         ; preds = %if.then7, %land.lhs.true, %if.end
  %10 = load ptr, ptr %c.addr, align 8
  %flags11 = getelementptr inbounds %struct.redisCommand, ptr %10, i32 0, i32 14
  %11 = load i64, ptr %flags11, align 8
  %and12 = and i64 %11, 16
  %tobool13 = icmp ne i64 %and12, 0
  br i1 %tobool13, label %if.then14, label %if.end17

if.then14:                                        ; preds = %if.end10
  %12 = load ptr, ptr %c.addr, align 8
  %acl_categories15 = getelementptr inbounds %struct.redisCommand, ptr %12, i32 0, i32 15
  %13 = load i64, ptr %acl_categories15, align 8
  %or16 = or i64 %13, 139264
  store i64 %or16, ptr %acl_categories15, align 8
  br label %if.end17

if.end17:                                         ; preds = %if.then14, %if.end10
  %14 = load ptr, ptr %c.addr, align 8
  %flags18 = getelementptr inbounds %struct.redisCommand, ptr %14, i32 0, i32 14
  %15 = load i64, ptr %flags18, align 8
  %and19 = and i64 %15, 32
  %tobool20 = icmp ne i64 %and19, 0
  br i1 %tobool20, label %if.then21, label %if.end24

if.then21:                                        ; preds = %if.end17
  %16 = load ptr, ptr %c.addr, align 8
  %acl_categories22 = getelementptr inbounds %struct.redisCommand, ptr %16, i32 0, i32 15
  %17 = load i64, ptr %acl_categories22, align 8
  %or23 = or i64 %17, 4096
  store i64 %or23, ptr %acl_categories22, align 8
  br label %if.end24

if.end24:                                         ; preds = %if.then21, %if.end17
  %18 = load ptr, ptr %c.addr, align 8
  %flags25 = getelementptr inbounds %struct.redisCommand, ptr %18, i32 0, i32 14
  %19 = load i64, ptr %flags25, align 8
  %and26 = and i64 %19, 16384
  %tobool27 = icmp ne i64 %and26, 0
  br i1 %tobool27, label %if.then28, label %if.end31

if.then28:                                        ; preds = %if.end24
  %20 = load ptr, ptr %c.addr, align 8
  %acl_categories29 = getelementptr inbounds %struct.redisCommand, ptr %20, i32 0, i32 15
  %21 = load i64, ptr %acl_categories29, align 8
  %or30 = or i64 %21, 16384
  store i64 %or30, ptr %acl_categories29, align 8
  br label %if.end31

if.end31:                                         ; preds = %if.then28, %if.end24
  %22 = load ptr, ptr %c.addr, align 8
  %flags32 = getelementptr inbounds %struct.redisCommand, ptr %22, i32 0, i32 14
  %23 = load i64, ptr %flags32, align 8
  %and33 = and i64 %23, 256
  %tobool34 = icmp ne i64 %and33, 0
  br i1 %tobool34, label %if.then35, label %if.end38

if.then35:                                        ; preds = %if.end31
  %24 = load ptr, ptr %c.addr, align 8
  %acl_categories36 = getelementptr inbounds %struct.redisCommand, ptr %24, i32 0, i32 15
  %25 = load i64, ptr %acl_categories36, align 8
  %or37 = or i64 %25, 65536
  store i64 %or37, ptr %acl_categories36, align 8
  br label %if.end38

if.end38:                                         ; preds = %if.then35, %if.end31
  %26 = load ptr, ptr %c.addr, align 8
  %acl_categories39 = getelementptr inbounds %struct.redisCommand, ptr %26, i32 0, i32 15
  %27 = load i64, ptr %acl_categories39, align 8
  %and40 = and i64 %27, 16384
  %tobool41 = icmp ne i64 %and40, 0
  br i1 %tobool41, label %if.end45, label %if.then42

if.then42:                                        ; preds = %if.end38
  %28 = load ptr, ptr %c.addr, align 8
  %acl_categories43 = getelementptr inbounds %struct.redisCommand, ptr %28, i32 0, i32 15
  %29 = load i64, ptr %acl_categories43, align 8
  %or44 = or i64 %29, 32768
  store i64 %or44, ptr %acl_categories43, align 8
  br label %if.end45

if.end45:                                         ; preds = %if.then42, %if.end38
  ret void
}