; Function Attrs: mustprogress nofree norecurse nosync nounwind willreturn memory(argmem: readwrite) uwtable
define dso_local void @setImplicitACLCategories(ptr nocapture noundef %c) local_unnamed_addr #25 {
entry:
  %flags = getelementptr inbounds i8, ptr %c, i64 112
  %0 = load i64, ptr %flags, align 8
  %and = and i64 %0, 1
  %tobool.not = icmp eq i64 %and, 0
  br i1 %tobool.not, label %if.end, label %if.then

if.then:                                          ; preds = %entry
  %acl_categories = getelementptr inbounds i8, ptr %c, i64 120
  %1 = load i64, ptr %acl_categories, align 8
  %or = or i64 %1, 4
  store i64 %or, ptr %acl_categories, align 8
  br label %if.end

if.end:                                           ; preds = %if.then, %entry
  %and2 = and i64 %0, 2
  %tobool3.not = icmp eq i64 %and2, 0
  br i1 %tobool3.not, label %if.end10, label %land.lhs.true

land.lhs.true:                                    ; preds = %if.end
  %acl_categories4 = getelementptr inbounds i8, ptr %c, i64 120
  %2 = load i64, ptr %acl_categories4, align 8
  %and5 = and i64 %2, 1048576
  %tobool6.not = icmp eq i64 %and5, 0
  br i1 %tobool6.not, label %if.then7, label %if.end10

if.then7:                                         ; preds = %land.lhs.true
  %or9 = or i64 %2, 2
  store i64 %or9, ptr %acl_categories4, align 8
  br label %if.end10

if.end10:                                         ; preds = %if.then7, %land.lhs.true, %if.end
  %and12 = and i64 %0, 16
  %tobool13.not = icmp eq i64 %and12, 0
  br i1 %tobool13.not, label %if.end17, label %if.then14

if.then14:                                        ; preds = %if.end10
  %acl_categories15 = getelementptr inbounds i8, ptr %c, i64 120
  %3 = load i64, ptr %acl_categories15, align 8
  %or16 = or i64 %3, 139264
  store i64 %or16, ptr %acl_categories15, align 8
  br label %if.end17

if.end17:                                         ; preds = %if.then14, %if.end10
  %and19 = and i64 %0, 32
  %tobool20.not = icmp eq i64 %and19, 0
  br i1 %tobool20.not, label %if.end24, label %if.then21

if.then21:                                        ; preds = %if.end17
  %acl_categories22 = getelementptr inbounds i8, ptr %c, i64 120
  %4 = load i64, ptr %acl_categories22, align 8
  %or23 = or i64 %4, 4096
  store i64 %or23, ptr %acl_categories22, align 8
  br label %if.end24

if.end24:                                         ; preds = %if.then21, %if.end17
  %and26 = and i64 %0, 16384
  %tobool27.not = icmp eq i64 %and26, 0
  br i1 %tobool27.not, label %if.end31, label %if.then28

if.then28:                                        ; preds = %if.end24
  %acl_categories29 = getelementptr inbounds i8, ptr %c, i64 120
  %5 = load i64, ptr %acl_categories29, align 8
  %or30 = or i64 %5, 16384
  store i64 %or30, ptr %acl_categories29, align 8
  br label %if.end31

if.end31:                                         ; preds = %if.then28, %if.end24
  %and33 = and i64 %0, 256
  %tobool34.not = icmp eq i64 %and33, 0
  %acl_categories39.phi.trans.insert = getelementptr inbounds i8, ptr %c, i64 120
  %.pre = load i64, ptr %acl_categories39.phi.trans.insert, align 8
  br i1 %tobool34.not, label %if.end38, label %if.then35

if.then35:                                        ; preds = %if.end31
  %or37 = or i64 %.pre, 65536
  store i64 %or37, ptr %acl_categories39.phi.trans.insert, align 8
  br label %if.end38

if.end38:                                         ; preds = %if.end31, %if.then35
  %6 = phi i64 [ %or37, %if.then35 ], [ %.pre, %if.end31 ]
  %and40 = and i64 %6, 16384
  %tobool41.not = icmp eq i64 %and40, 0
  br i1 %tobool41.not, label %if.then42, label %if.end45

if.then42:                                        ; preds = %if.end38
  %acl_categories39 = getelementptr inbounds i8, ptr %c, i64 120
  %or44 = or i64 %6, 32768
  store i64 %or44, ptr %acl_categories39, align 8
  br label %if.end45

if.end45:                                         ; preds = %if.then42, %if.end38
  ret void
}